; Function Attrs: mustprogress nofree norecurse nosync nounwind willreturn memory(read, argmem: readwrite, inaccessiblemem: none) uwtable
define internal noundef i32 @config_props(ptr noundef captures(none) initializes((40, 48), (96, 104), (264, 272)) %0) #2 {
  %2 = load ptr, ptr %0, align 8, !tbaa !45
  %3 = getelementptr inbounds nuw i8, ptr %2, i64 72
  %4 = load ptr, ptr %3, align 8, !tbaa !4
  %5 = getelementptr inbounds nuw i8, ptr %4, i64 8
  %6 = load i32, ptr %5, align 8, !tbaa !20
  %7 = getelementptr inbounds nuw i8, ptr %0, i64 40
  store i32 %6, ptr %7, align 8, !tbaa !70
  %8 = getelementptr inbounds nuw i8, ptr %4, i64 12
  %9 = load i32, ptr %8, align 4, !tbaa !31
  %10 = getelementptr inbounds nuw i8, ptr %0, i64 44
  store i32 %9, ptr %10, align 4, !tbaa !71
  %11 = getelementptr inbounds nuw i8, ptr %0, i64 96
  %12 = getelementptr inbounds nuw i8, ptr %4, i64 80
  %13 = load i64, ptr %12, align 8
  %.sroa.01.0.insert.insert.i = tail call i64 @llvm.fshl.i64(i64 %13, i64 %13, i64 32)
  store i64 %.sroa.01.0.insert.insert.i, ptr %11, align 8
  %14 = getelementptr inbounds nuw i8, ptr %0, i64 264
  %15 = load i64, ptr %12, align 8
  store i64 %15, ptr %14, align 8
  ret i32 0
}